target datalayout = "e-m:e-p270:32:32-p271:32:32-p272:64:64-i64:64-i128:128-f80:128-n8:16:32:64-S128"
target triple = "x86_64-unknown-linux-gnu"

%struct.CPUWatchpoint = type { i64, i64, i64, %struct.MemTxAttrs, i32, %union.anon }
%struct.MemTxAttrs = type { i32 }
%union.anon = type { %struct.QTailQLink }
%struct.QTailQLink = type { ptr, ptr }
%struct.CPUState = type { %struct.DeviceState, ptr, i32, i32, ptr, i32, i8, i8, ptr, i8, i8, i8, i8, i8, i8, i8, i8, i32, i32, i32, i32, i64, i64, i64, [1 x %struct.__jmp_buf_tag], %struct.QemuMutex, %struct.anon, ptr, i32, ptr, ptr, ptr, ptr, i32, i32, %union.anon.0, %union.anon.1, %union.anon.2, ptr, ptr, i64, i32, ptr, ptr, ptr, i32, i64, i32, %struct.QemuLockCnt, [1 x i64], ptr, i32, i32, i32, i32, i32, ptr, i8, i8, i64, i8, i8, ptr, [8 x i8], [0 x i8], %struct.CPUNegativeOffsetState }
%struct.DeviceState = type { %struct.Object, ptr, ptr, i8, i8, i64, ptr, i32, i8, ptr, %struct.NamedGPIOListHead, %struct.NamedClockListHead, %struct.BusStateHead, i32, i32, i32, %struct.ResettableState, ptr, %struct.MemReentrancyGuard }
%struct.Object = type { ptr, ptr, ptr, i32, ptr }
%struct.NamedGPIOListHead = type { ptr }
%struct.NamedClockListHead = type { ptr }
%struct.BusStateHead = type { ptr }
%struct.ResettableState = type { i32, i8, i8 }
%struct.MemReentrancyGuard = type { i8 }
%struct.__jmp_buf_tag = type { [8 x i64], i32, %struct.__sigset_t }
%struct.__sigset_t = type { [16 x i64] }
%struct.QemuMutex = type { %union.pthread_mutex_t, i8 }
%union.pthread_mutex_t = type { %struct.__pthread_mutex_s }
%struct.__pthread_mutex_s = type { i32, i32, i32, i32, i32, i16, i16, %struct.__pthread_internal_list }
%struct.__pthread_internal_list = type { ptr, ptr }
%struct.anon = type { ptr, ptr }
%union.anon.0 = type { %struct.QTailQLink }
%union.anon.1 = type { %struct.QTailQLink }
%union.anon.2 = type { %struct.QTailQLink }
%struct.QemuLockCnt = type { i32 }
%struct.CPUNegativeOffsetState = type { %struct.CPUTLB, %union.IcountDecr, i8, [11 x i8] }
%struct.CPUTLB = type { %struct.CPUTLBCommon, [16 x %struct.CPUTLBDesc], [16 x %struct.CPUTLBDescFast] }
%struct.CPUTLBCommon = type { %struct.QemuSpin, i16, i64, i64, i64 }
%struct.QemuSpin = type { i32 }
%struct.CPUTLBDesc = type { i64, i64, i64, i64, i64, i64, [8 x %union.CPUTLBEntry], [8 x %struct.CPUTLBEntryFull], ptr }
%union.CPUTLBEntry = type { %struct.anon.3 }
%struct.anon.3 = type { i64, i64, i64, i64 }
%struct.CPUTLBEntryFull = type { i64, i64, %struct.MemTxAttrs, i8, i8, [3 x i8], %union.anon.4 }
%union.anon.4 = type { %struct.anon.5 }
%struct.anon.5 = type { i8, i8, i8 }
%struct.CPUTLBDescFast = type { i64, ptr }
%union.IcountDecr = type { i32 }

@.str = private unnamed_addr constant [48 x i8] c"tried to set invalid watchpoint at %lx, len=%lu\00", align 1

; Function Attrs: nounwind sspstrong uwtable
define dso_local i32 @cpu_watchpoint_insert(ptr noundef %cpu, i64 noundef %addr, i64 noundef %len, i32 noundef %flags, ptr noundef %watchpoint) #0 {
entry:
  %retval = alloca i32, align 4
  %cpu.addr = alloca ptr, align 8
  %addr.addr = alloca i64, align 8
  %len.addr = alloca i64, align 8
  %flags.addr = alloca i32, align 4
  %watchpoint.addr = alloca ptr, align 8
  %wp = alloca ptr, align 8
  %in_page = alloca i64, align 8
  store ptr %cpu, ptr %cpu.addr, align 8
  store i64 %addr, ptr %addr.addr, align 8
  store i64 %len, ptr %len.addr, align 8
  store i32 %flags, ptr %flags.addr, align 4
  store ptr %watchpoint, ptr %watchpoint.addr, align 8
  %0 = load i64, ptr %len.addr, align 8
  %cmp = icmp eq i64 %0, 0
  br i1 %cmp, label %if.then, label %lor.lhs.false

lor.lhs.false:                                    ; preds = %entry
  %1 = load i64, ptr %addr.addr, align 8
  %2 = load i64, ptr %len.addr, align 8
  %add = add i64 %1, %2
  %sub = sub i64 %add, 1
  %3 = load i64, ptr %addr.addr, align 8
  %cmp1 = icmp ult i64 %sub, %3
  br i1 %cmp1, label %if.then, label %if.end

if.then:                                          ; preds = %lor.lhs.false, %entry
  %4 = load i64, ptr %addr.addr, align 8
  %5 = load i64, ptr %len.addr, align 8
  call void (ptr, ...) @error_report(ptr noundef @.str, i64 noundef %4, i64 noundef %5)
  store i32 -22, ptr %retval, align 4
  br label %return

if.end:                                           ; preds = %lor.lhs.false
  %call = call noalias ptr @g_malloc(i64 noundef 48) #6
  store ptr %call, ptr %wp, align 8
  %6 = load i64, ptr %addr.addr, align 8
  %7 = load ptr, ptr %wp, align 8
  %vaddr = getelementptr inbounds %struct.CPUWatchpoint, ptr %7, i32 0, i32 0
  store i64 %6, ptr %vaddr, align 8
  %8 = load i64, ptr %len.addr, align 8
  %9 = load ptr, ptr %wp, align 8
  %len2 = getelementptr inbounds %struct.CPUWatchpoint, ptr %9, i32 0, i32 1
  store i64 %8, ptr %len2, align 8
  %10 = load i32, ptr %flags.addr, align 4
  %11 = load ptr, ptr %wp, align 8
  %flags3 = getelementptr inbounds %struct.CPUWatchpoint, ptr %11, i32 0, i32 4
  store i32 %10, ptr %flags3, align 4
  %12 = load i32, ptr %flags.addr, align 4
  %and = and i32 %12, 16
  %tobool = icmp ne i32 %and, 0
  br i1 %tobool, label %if.then4, label %if.else19

if.then4:                                         ; preds = %if.end
  br label %do.body

do.body:                                          ; preds = %if.then4
  %13 = load ptr, ptr %cpu.addr, align 8
  %watchpoints = getelementptr inbounds %struct.CPUState, ptr %13, i32 0, i32 37
  %14 = load ptr, ptr %watchpoints, align 8
  %15 = load ptr, ptr %wp, align 8
  %entry5 = getelementptr inbounds %struct.CPUWatchpoint, ptr %15, i32 0, i32 5
  store ptr %14, ptr %entry5, align 8
  %cmp6 = icmp ne ptr %14, null
  br i1 %cmp6, label %if.then7, label %if.else

if.then7:                                         ; preds = %do.body
  %16 = load ptr, ptr %wp, align 8
  %entry8 = getelementptr inbounds %struct.CPUWatchpoint, ptr %16, i32 0, i32 5
  %17 = load ptr, ptr %cpu.addr, align 8
  %watchpoints9 = getelementptr inbounds %struct.CPUState, ptr %17, i32 0, i32 37
  %18 = load ptr, ptr %watchpoints9, align 8
  %entry10 = getelementptr inbounds %struct.CPUWatchpoint, ptr %18, i32 0, i32 5
  %tql_prev = getelementptr inbounds %struct.QTailQLink, ptr %entry10, i32 0, i32 1
  store ptr %entry8, ptr %tql_prev, align 8
  br label %if.end14

if.else:                                          ; preds = %do.body
  %19 = load ptr, ptr %wp, align 8
  %entry11 = getelementptr inbounds %struct.CPUWatchpoint, ptr %19, i32 0, i32 5
  %20 = load ptr, ptr %cpu.addr, align 8
  %watchpoints12 = getelementptr inbounds %struct.CPUState, ptr %20, i32 0, i32 37
  %tql_prev13 = getelementptr inbounds %struct.QTailQLink, ptr %watchpoints12, i32 0, i32 1
  store ptr %entry11, ptr %tql_prev13, align 8
  br label %if.end14

if.end14:                                         ; preds = %if.else, %if.then7
  %21 = load ptr, ptr %wp, align 8
  %22 = load ptr, ptr %cpu.addr, align 8
  %watchpoints15 = getelementptr inbounds %struct.CPUState, ptr %22, i32 0, i32 37
  store ptr %21, ptr %watchpoints15, align 8
  %23 = load ptr, ptr %cpu.addr, align 8
  %watchpoints16 = getelementptr inbounds %struct.CPUState, ptr %23, i32 0, i32 37
  %24 = load ptr, ptr %wp, align 8
  %entry17 = getelementptr inbounds %struct.CPUWatchpoint, ptr %24, i32 0, i32 5
  %tql_prev18 = getelementptr inbounds %struct.QTailQLink, ptr %entry17, i32 0, i32 1
  store ptr %watchpoints16, ptr %tql_prev18, align 8
  br label %do.end

do.end:                                           ; preds = %if.end14
  br label %if.end32

if.else19:                                        ; preds = %if.end
  br label %do.body20

do.body20:                                        ; preds = %if.else19
  %25 = load ptr, ptr %wp, align 8
  %entry21 = getelementptr inbounds %struct.CPUWatchpoint, ptr %25, i32 0, i32 5
  store ptr null, ptr %entry21, align 8
  %26 = load ptr, ptr %cpu.addr, align 8
  %watchpoints22 = getelementptr inbounds %struct.CPUState, ptr %26, i32 0, i32 37
  %tql_prev23 = getelementptr inbounds %struct.QTailQLink, ptr %watchpoints22, i32 0, i32 1
  %27 = load ptr, ptr %tql_prev23, align 8
  %28 = load ptr, ptr %wp, align 8
  %entry24 = getelementptr inbounds %struct.CPUWatchpoint, ptr %28, i32 0, i32 5
  %tql_prev25 = getelementptr inbounds %struct.QTailQLink, ptr %entry24, i32 0, i32 1
  store ptr %27, ptr %tql_prev25, align 8
  %29 = load ptr, ptr %wp, align 8
  %30 = load ptr, ptr %cpu.addr, align 8
  %watchpoints26 = getelementptr inbounds %struct.CPUState, ptr %30, i32 0, i32 37
  %tql_prev27 = getelementptr inbounds %struct.QTailQLink, ptr %watchpoints26, i32 0, i32 1
  %31 = load ptr, ptr %tql_prev27, align 8
  %tql_next = getelementptr inbounds %struct.QTailQLink, ptr %31, i32 0, i32 0
  store ptr %29, ptr %tql_next, align 8
  %32 = load ptr, ptr %wp, align 8
  %entry28 = getelementptr inbounds %struct.CPUWatchpoint, ptr %32, i32 0, i32 5
  %33 = load ptr, ptr %cpu.addr, align 8
  %watchpoints29 = getelementptr inbounds %struct.CPUState, ptr %33, i32 0, i32 37
  %tql_prev30 = getelementptr inbounds %struct.QTailQLink, ptr %watchpoints29, i32 0, i32 1
  store ptr %entry28, ptr %tql_prev30, align 8
  br label %do.end31

do.end31:                                         ; preds = %do.body20
  br label %if.end32

if.end32:                                         ; preds = %do.end31, %do.end
  %34 = load i64, ptr %addr.addr, align 8
  %or = or i64 %34, -4096
  %sub33 = sub i64 0, %or
  store i64 %sub33, ptr %in_page, align 8
  %35 = load i64, ptr %len.addr, align 8
  %36 = load i64, ptr %in_page, align 8
  %cmp34 = icmp ule i64 %35, %36
  br i1 %cmp34, label %if.then35, label %if.else36

if.then35:                                        ; preds = %if.end32
  %37 = load ptr, ptr %cpu.addr, align 8
  %38 = load i64, ptr %addr.addr, align 8
  call void @tlb_flush_page(ptr noundef %37, i64 noundef %38)
  br label %if.end37

if.else36:                                        ; preds = %if.end32
  %39 = load ptr, ptr %cpu.addr, align 8
  call void @tlb_flush(ptr noundef %39)
  br label %if.end37

if.end37:                                         ; preds = %if.else36, %if.then35
  %40 = load ptr, ptr %watchpoint.addr, align 8
  %tobool38 = icmp ne ptr %40, null
  br i1 %tobool38, label %if.then39, label %if.end40

if.then39:                                        ; preds = %if.end37
  %41 = load ptr, ptr %wp, align 8
  %42 = load ptr, ptr %watchpoint.addr, align 8
  store ptr %41, ptr %42, align 8
  br label %if.end40

if.end40:                                         ; preds = %if.then39, %if.end37
  store i32 0, ptr %retval, align 4
  br label %return

return:                                           ; preds = %if.end40, %if.then
  %43 = load i32, ptr %retval, align 4
  ret i32 %43
}