; Function Attrs: nounwind sspstrong uwtable
define dso_local range(i32 -22, 1) i32 @cpu_watchpoint_insert(ptr noundef %cpu, i64 noundef %addr, i64 noundef %len, i32 noundef %flags, ptr noundef writeonly %watchpoint) local_unnamed_addr #0 {
entry:
  %cmp = icmp eq i64 %len, 0
  %0 = sub i64 0, %len
  %cmp1 = icmp ugt i64 %addr, %0
  %or.cond = or i1 %cmp, %cmp1
  br i1 %or.cond, label %if.then, label %if.end

if.then:                                          ; preds = %entry
  tail call void (ptr, ...) @error_report(ptr noundef nonnull @.str, i64 noundef %addr, i64 noundef %len) #8
  br label %return

if.end:                                           ; preds = %entry
  %call = tail call noalias dereferenceable_or_null(48) ptr @g_malloc(i64 noundef 48) #9
  store i64 %addr, ptr %call, align 8
  %len2 = getelementptr inbounds nuw i8, ptr %call, i64 8
  store i64 %len, ptr %len2, align 8
  %flags3 = getelementptr inbounds nuw i8, ptr %call, i64 28
  store i32 %flags, ptr %flags3, align 4
  %and = and i32 %flags, 16
  %tobool.not = icmp eq i32 %and, 0
  br i1 %tobool.not, label %do.body20, label %do.body

do.body:                                          ; preds = %if.end
  %watchpoints = getelementptr inbounds nuw i8, ptr %cpu, i64 600
  %1 = load ptr, ptr %watchpoints, align 8
  %entry5 = getelementptr inbounds nuw i8, ptr %call, i64 32
  store ptr %1, ptr %entry5, align 8
  %cmp6.not = icmp eq ptr %1, null
  br i1 %cmp6.not, label %if.else, label %if.then7

if.then7:                                         ; preds = %do.body
  %tql_prev = getelementptr inbounds nuw i8, ptr %1, i64 40
  store ptr %entry5, ptr %tql_prev, align 8
  br label %if.end14

if.else:                                          ; preds = %do.body
  %tql_prev13 = getelementptr inbounds nuw i8, ptr %cpu, i64 608
  store ptr %entry5, ptr %tql_prev13, align 8
  br label %if.end14

if.end14:                                         ; preds = %if.else, %if.then7
  store ptr %call, ptr %watchpoints, align 8
  %tql_prev18 = getelementptr inbounds nuw i8, ptr %call, i64 40
  store ptr %watchpoints, ptr %tql_prev18, align 8
  br label %if.end32

do.body20:                                        ; preds = %if.end
  %entry21 = getelementptr inbounds nuw i8, ptr %call, i64 32
  store ptr null, ptr %entry21, align 8
  %tql_prev23 = getelementptr inbounds nuw i8, ptr %cpu, i64 608
  %2 = load ptr, ptr %tql_prev23, align 8
  %tql_prev25 = getelementptr inbounds nuw i8, ptr %call, i64 40
  store ptr %2, ptr %tql_prev25, align 8
  store ptr %call, ptr %2, align 8
  store ptr %entry21, ptr %tql_prev23, align 8
  br label %if.end32

if.end32:                                         ; preds = %do.body20, %if.end14
  %or = or i64 %addr, -4096
  %sub33 = sub nsw i64 0, %or
  %cmp34.not = icmp ugt i64 %len, %sub33
  br i1 %cmp34.not, label %if.else36, label %if.then35

if.then35:                                        ; preds = %if.end32
  tail call void @tlb_flush_page(ptr noundef nonnull %cpu, i64 noundef %addr) #8
  br label %if.end37

if.else36:                                        ; preds = %if.end32
  tail call void @tlb_flush(ptr noundef nonnull %cpu) #8
  br label %if.end37

if.end37:                                         ; preds = %if.else36, %if.then35
  %tobool38.not = icmp eq ptr %watchpoint, null
  br i1 %tobool38.not, label %return, label %if.then39

if.then39:                                        ; preds = %if.end37
  store ptr %call, ptr %watchpoint, align 8
  br label %return

return:                                           ; preds = %if.end37, %if.then39, %if.then
  %retval.0 = phi i32 [ -22, %if.then ], [ 0, %if.then39 ], [ 0, %if.end37 ]
  ret i32 %retval.0
}